target datalayout = "e-m:e-p270:32:32-p271:32:32-p272:64:64-i64:64-i128:128-f80:128-n8:16:32:64-S128"
target triple = "x86_64-pc-linux-gnu"

%struct.rb_data_type_struct = type { ptr, %struct.anon.12, ptr, ptr, i64 }
%struct.anon.12 = type { ptr, ptr, ptr, ptr, [1 x ptr] }
%struct.rb_code_location_struct = type { %struct.rb_code_position_struct, %struct.rb_code_position_struct }
%struct.rb_code_position_struct = type { i32, i32 }
%struct.ASTNodeData = type { i64, ptr }
%struct.rb_ast_struct = type { ptr, %struct.rb_ast_body_struct }
%struct.rb_ast_body_struct = type { ptr, ptr, i32, i8 }
%struct.node_buffer_struct = type { %struct.node_buffer_list_t, ptr, ptr }
%struct.node_buffer_list_t = type { ptr, ptr }
%struct.rb_parser_ary = type { i32, ptr, i64, i64 }
%struct.rb_parser_ast_token = type { i32, ptr, ptr, %struct.rb_code_location_struct }
%struct.rb_parser_string = type { i32, ptr, i64, ptr }

@rb_node_type = internal constant %struct.rb_data_type_struct { ptr @.str.24, %struct.anon.12 { ptr @node_gc_mark, ptr inttoptr (i64 -1 to ptr), ptr @node_memsize, ptr null, [1 x ptr] zeroinitializer }, ptr null, ptr null, i64 1 }, align 8
@ast_node_all_tokens.rbimpl_id = internal global i64 0, align 8

; Function Attrs: inlinehint nounwind sspstrong willreturn memory(read) uwtable
define internal i64 @rb_intern_const(ptr noundef nonnull %0) #8 {
  %2 = alloca ptr, align 8
  %3 = alloca i64, align 8
  store ptr %0, ptr %2, align 8, !tbaa !117
  call void @llvm.lifetime.start.p0(i64 8, ptr %3) #16
  %4 = load ptr, ptr %2, align 8, !tbaa !117
  %5 = call i64 @strlen(ptr noundef %4) #18
  store i64 %5, ptr %3, align 8, !tbaa !12
  %6 = load ptr, ptr %2, align 8, !tbaa !117
  %7 = load i64, ptr %3, align 8, !tbaa !12
  %8 = call i64 @rb_intern2(ptr noundef %6, i64 noundef %7)
  call void @llvm.lifetime.end.p0(i64 8, ptr %3) #16
  ret i64 %8
}

; Function Attrs: inlinehint nounwind sspstrong memory(argmem: readwrite, inaccessiblemem: readwrite) uwtable
define internal i64 @rbimpl_intern_const(ptr noundef nonnull %0, ptr noundef nonnull %1) #7 {
  %3 = alloca ptr, align 8
  %4 = alloca ptr, align 8
  store ptr %0, ptr %3, align 8, !tbaa !116
  store ptr %1, ptr %4, align 8, !tbaa !117
  br label %5

5:                                                ; preds = %10, %2
  %6 = load ptr, ptr %3, align 8, !tbaa !116
  %7 = load i64, ptr %6, align 8, !tbaa !12
  %8 = icmp ne i64 %7, 0
  %9 = xor i1 %8, true
  br i1 %9, label %10, label %14

10:                                               ; preds = %5
  %11 = load ptr, ptr %4, align 8, !tbaa !117
  %12 = call i64 @rb_intern_const(ptr noundef %11) #18
  %13 = load ptr, ptr %3, align 8, !tbaa !116
  store i64 %12, ptr %13, align 8, !tbaa !12
  br label %5, !llvm.loop !118

14:                                               ; preds = %5
  %15 = load ptr, ptr %3, align 8, !tbaa !116
  %16 = load i64, ptr %15, align 8, !tbaa !12
  ret i64 %16
}

; Function Attrs: inlinehint nounwind sspstrong willreturn memory(none) uwtable
define internal i64 @RB_INT2FIX(i64 noundef %0) #3 {
  %2 = alloca i64, align 8
  %3 = alloca i64, align 8
  %4 = alloca i64, align 8
  %5 = alloca i64, align 8
  %6 = alloca i64, align 8
  %7 = alloca i64, align 8
  store i64 %0, ptr %2, align 8, !tbaa !12
  call void @llvm.lifetime.start.p0(i64 8, ptr %3) #16
  %8 = load i64, ptr %2, align 8, !tbaa !12
  store i64 %8, ptr %3, align 8, !tbaa !12
  call void @llvm.lifetime.start.p0(i64 8, ptr %4) #16
  %9 = load i64, ptr %3, align 8, !tbaa !12
  %10 = shl i64 %9, 1
  %11 = add i64 %10, 1
  store i64 %11, ptr %4, align 8, !tbaa !12
  call void @llvm.lifetime.start.p0(i64 8, ptr %5) #16
  %12 = load i64, ptr %4, align 8, !tbaa !12
  store i64 %12, ptr %5, align 8, !tbaa !12
  call void @llvm.lifetime.start.p0(i64 8, ptr %6) #16
  %13 = load i64, ptr %5, align 8, !tbaa !12
  store i64 %13, ptr %6, align 8, !tbaa !12
  call void @llvm.lifetime.start.p0(i64 8, ptr %7) #16
  %14 = load i64, ptr %6, align 8, !tbaa !12
  store i64 %14, ptr %7, align 8, !tbaa !12
  %15 = load i64, ptr %7, align 8, !tbaa !12
  call void @llvm.lifetime.end.p0(i64 8, ptr %7) #16
  call void @llvm.lifetime.end.p0(i64 8, ptr %6) #16
  call void @llvm.lifetime.end.p0(i64 8, ptr %5) #16
  call void @llvm.lifetime.end.p0(i64 8, ptr %4) #16
  call void @llvm.lifetime.end.p0(i64 8, ptr %3) #16
  ret i64 %15
}

; Function Attrs: nounwind sspstrong uwtable
define internal i64 @ast_node_all_tokens(ptr noundef %0, i64 noundef %1) #0 {
  %3 = alloca i64, align 8
  %4 = alloca ptr, align 8
  %5 = alloca i64, align 8
  %6 = alloca i64, align 8
  %7 = alloca ptr, align 8
  %8 = alloca ptr, align 8
  %9 = alloca ptr, align 8
  %10 = alloca ptr, align 8
  %11 = alloca i64, align 8
  %12 = alloca i64, align 8
  %13 = alloca i64, align 8
  %14 = alloca i64, align 8
  %15 = alloca i32, align 4
  %16 = alloca i64, align 8
  store ptr %0, ptr %4, align 8, !tbaa !7
  store i64 %1, ptr %5, align 8, !tbaa !12
  call void @llvm.lifetime.start.p0(i64 8, ptr %6) #16
  call void @llvm.lifetime.start.p0(i64 8, ptr %7) #16
  call void @llvm.lifetime.start.p0(i64 8, ptr %8) #16
  call void @llvm.lifetime.start.p0(i64 8, ptr %9) #16
  call void @llvm.lifetime.start.p0(i64 8, ptr %10) #16
  call void @llvm.lifetime.start.p0(i64 8, ptr %11) #16
  call void @llvm.lifetime.start.p0(i64 8, ptr %12) #16
  call void @llvm.lifetime.start.p0(i64 8, ptr %13) #16
  call void @llvm.lifetime.start.p0(i64 8, ptr %14) #16
  %17 = load i64, ptr %5, align 8, !tbaa !12
  %18 = call ptr @rb_check_typeddata(i64 noundef %17, ptr noundef @rb_node_type)
  store ptr %18, ptr %7, align 8, !tbaa !44
  %19 = load ptr, ptr %7, align 8, !tbaa !44
  %20 = getelementptr inbounds nuw %struct.ASTNodeData, ptr %19, i32 0, i32 0
  %21 = load i64, ptr %20, align 8, !tbaa !54
  %22 = call ptr @rb_ruby_ast_data_get(i64 noundef %21)
  store ptr %22, ptr %8, align 8, !tbaa !55
  %23 = load ptr, ptr %8, align 8, !tbaa !55
  %24 = getelementptr inbounds nuw %struct.rb_ast_struct, ptr %23, i32 0, i32 0
  %25 = load ptr, ptr %24, align 8, !tbaa !57
  %26 = getelementptr inbounds nuw %struct.node_buffer_struct, ptr %25, i32 0, i32 2
  %27 = load ptr, ptr %26, align 8, !tbaa !62
  store ptr %27, ptr %9, align 8, !tbaa !67
  %28 = load ptr, ptr %9, align 8, !tbaa !67
  %29 = icmp eq ptr %28, null
  br i1 %29, label %30, label %31

30:                                               ; preds = %2
  store i64 4, ptr %3, align 8
  store i32 1, ptr %15, align 4
  br label %131

31:                                               ; preds = %2
  %32 = load ptr, ptr %9, align 8, !tbaa !67
  %33 = getelementptr inbounds nuw %struct.rb_parser_ary, ptr %32, i32 0, i32 2
  %34 = load i64, ptr %33, align 8, !tbaa !68
  %35 = call i64 @rb_ary_new_capa(i64 noundef %34)
  store i64 %35, ptr %14, align 8, !tbaa !12
  store i64 0, ptr %6, align 8, !tbaa !12
  br label %36

36:                                               ; preds = %124, %31
  %37 = load i64, ptr %6, align 8, !tbaa !12
  %38 = load ptr, ptr %9, align 8, !tbaa !67
  %39 = getelementptr inbounds nuw %struct.rb_parser_ary, ptr %38, i32 0, i32 2
  %40 = load i64, ptr %39, align 8, !tbaa !68
  %41 = icmp slt i64 %37, %40
  br i1 %41, label %42, label %127

42:                                               ; preds = %36
  %43 = load ptr, ptr %9, align 8, !tbaa !67
  %44 = getelementptr inbounds nuw %struct.rb_parser_ary, ptr %43, i32 0, i32 1
  %45 = load ptr, ptr %44, align 8, !tbaa !70
  %46 = load i64, ptr %6, align 8, !tbaa !12
  %47 = getelementptr ptr, ptr %45, i64 %46
  %48 = load ptr, ptr %47, align 8, !tbaa !71
  store ptr %48, ptr %10, align 8, !tbaa !72
  br i1 false, label %49, label %56

49:                                               ; preds = %42
  %50 = load ptr, ptr %10, align 8, !tbaa !72
  %51 = getelementptr inbounds nuw %struct.rb_parser_ast_token, ptr %50, i32 0, i32 2
  %52 = load ptr, ptr %51, align 8, !tbaa !74
  %53 = getelementptr inbounds nuw %struct.rb_parser_string, ptr %52, i32 0, i32 2
  %54 = load i64, ptr %53, align 8, !tbaa !78
  %55 = call i1 @llvm.is.constant.i64(i64 %54)
  br label %56

56:                                               ; preds = %49, %42
  %57 = phi i1 [ false, %42 ], [ %55, %49 ]
  %58 = select i1 %57, ptr @rb_str_new_static, ptr @rb_str_new
  %59 = load ptr, ptr %10, align 8, !tbaa !72
  %60 = getelementptr inbounds nuw %struct.rb_parser_ast_token, ptr %59, i32 0, i32 2
  %61 = load ptr, ptr %60, align 8, !tbaa !74
  %62 = getelementptr inbounds nuw %struct.rb_parser_string, ptr %61, i32 0, i32 3
  %63 = load ptr, ptr %62, align 8, !tbaa !81
  %64 = load ptr, ptr %10, align 8, !tbaa !72
  %65 = getelementptr inbounds nuw %struct.rb_parser_ast_token, ptr %64, i32 0, i32 2
  %66 = load ptr, ptr %65, align 8, !tbaa !74
  %67 = getelementptr inbounds nuw %struct.rb_parser_string, ptr %66, i32 0, i32 2
  %68 = load i64, ptr %67, align 8, !tbaa !78
  %69 = call i64 %58(ptr noundef %63, i64 noundef %68)
  store i64 %69, ptr %11, align 8, !tbaa !12
  %70 = load ptr, ptr %10, align 8, !tbaa !72
  %71 = getelementptr inbounds nuw %struct.rb_parser_ast_token, ptr %70, i32 0, i32 3
  %72 = getelementptr inbounds nuw %struct.rb_code_location_struct, ptr %71, i32 0, i32 0
  %73 = getelementptr inbounds nuw %struct.rb_code_position_struct, ptr %72, i32 0, i32 0
  %74 = load i32, ptr %73, align 8, !tbaa !82
  %75 = sext i32 %74 to i64
  %76 = call i64 @RB_INT2FIX(i64 noundef %75) #19
  %77 = load ptr, ptr %10, align 8, !tbaa !72
  %78 = getelementptr inbounds nuw %struct.rb_parser_ast_token, ptr %77, i32 0, i32 3
  %79 = getelementptr inbounds nuw %struct.rb_code_location_struct, ptr %78, i32 0, i32 0
  %80 = getelementptr inbounds nuw %struct.rb_code_position_struct, ptr %79, i32 0, i32 1
  %81 = load i32, ptr %80, align 4, !tbaa !83
  %82 = sext i32 %81 to i64
  %83 = call i64 @RB_INT2FIX(i64 noundef %82) #19
  %84 = load ptr, ptr %10, align 8, !tbaa !72
  %85 = getelementptr inbounds nuw %struct.rb_parser_ast_token, ptr %84, i32 0, i32 3
  %86 = getelementptr inbounds nuw %struct.rb_code_location_struct, ptr %85, i32 0, i32 1
  %87 = getelementptr inbounds nuw %struct.rb_code_position_struct, ptr %86, i32 0, i32 0
  %88 = load i32, ptr %87, align 8, !tbaa !84
  %89 = sext i32 %88 to i64
  %90 = call i64 @RB_INT2FIX(i64 noundef %89) #19
  %91 = load ptr, ptr %10, align 8, !tbaa !72
  %92 = getelementptr inbounds nuw %struct.rb_parser_ast_token, ptr %91, i32 0, i32 3
  %93 = getelementptr inbounds nuw %struct.rb_code_location_struct, ptr %92, i32 0, i32 1
  %94 = getelementptr inbounds nuw %struct.rb_code_position_struct, ptr %93, i32 0, i32 1
  %95 = load i32, ptr %94, align 4, !tbaa !85
  %96 = sext i32 %95 to i64
  %97 = call i64 @RB_INT2FIX(i64 noundef %96) #19
  %98 = call i64 (i64, ...) @rb_ary_new_from_args(i64 noundef 4, i64 noundef %76, i64 noundef %83, i64 noundef %90, i64 noundef %97)
  store i64 %98, ptr %12, align 8, !tbaa !12
  %99 = load ptr, ptr %10, align 8, !tbaa !72
  %100 = getelementptr inbounds nuw %struct.rb_parser_ast_token, ptr %99, i32 0, i32 0
  %101 = load i32, ptr %100, align 8, !tbaa !86
  %102 = sext i32 %101 to i64
  %103 = call i64 @RB_INT2FIX(i64 noundef %102) #19
  br i1 false, label %104, label %110

104:                                              ; preds = %56
  %105 = load ptr, ptr %10, align 8, !tbaa !72
  %106 = getelementptr inbounds nuw %struct.rb_parser_ast_token, ptr %105, i32 0, i32 1
  %107 = load ptr, ptr %106, align 8, !tbaa !87
  %108 = call i64 @rbimpl_intern_const(ptr noundef @ast_node_all_tokens.rbimpl_id, ptr noundef %107) #20
  store i64 %108, ptr %16, align 8, !tbaa !12
  %109 = load i64, ptr %16, align 8, !tbaa !12
  br label %115

110:                                              ; preds = %56
  %111 = load ptr, ptr %10, align 8, !tbaa !72
  %112 = getelementptr inbounds nuw %struct.rb_parser_ast_token, ptr %111, i32 0, i32 1
  %113 = load ptr, ptr %112, align 8, !tbaa !87
  %114 = call i64 @rb_intern(ptr noundef %113)
  br label %115

115:                                              ; preds = %110, %104
  %116 = phi i64 [ %109, %104 ], [ %114, %110 ]
  %117 = call i64 @rb_id2sym(i64 noundef %116)
  %118 = load i64, ptr %11, align 8, !tbaa !12
  %119 = load i64, ptr %12, align 8, !tbaa !12
  %120 = call i64 (i64, ...) @rb_ary_new_from_args(i64 noundef 4, i64 noundef %103, i64 noundef %117, i64 noundef %118, i64 noundef %119)
  store i64 %120, ptr %13, align 8, !tbaa !12
  %121 = load i64, ptr %14, align 8, !tbaa !12
  %122 = load i64, ptr %13, align 8, !tbaa !12
  %123 = call i64 @rb_ary_push(i64 noundef %121, i64 noundef %122)
  br label %124

124:                                              ; preds = %115
  %125 = load i64, ptr %6, align 8, !tbaa !12
  %126 = add i64 %125, 1
  store i64 %126, ptr %6, align 8, !tbaa !12
  br label %36, !llvm.loop !88

127:                                              ; preds = %36
  %128 = load i64, ptr %14, align 8, !tbaa !12
  %129 = call i64 @rb_ary_freeze(i64 noundef %128)
  %130 = load i64, ptr %14, align 8, !tbaa !12
  store i64 %130, ptr %3, align 8
  store i32 1, ptr %15, align 4
  br label %131

131:                                              ; preds = %127, %30
  call void @llvm.lifetime.end.p0(i64 8, ptr %14) #16
  call void @llvm.lifetime.end.p0(i64 8, ptr %13) #16
  call void @llvm.lifetime.end.p0(i64 8, ptr %12) #16
  call void @llvm.lifetime.end.p0(i64 8, ptr %11) #16
  call void @llvm.lifetime.end.p0(i64 8, ptr %10) #16
  call void @llvm.lifetime.end.p0(i64 8, ptr %9) #16
  call void @llvm.lifetime.end.p0(i64 8, ptr %8) #16
  call void @llvm.lifetime.end.p0(i64 8, ptr %7) #16
  call void @llvm.lifetime.end.p0(i64 8, ptr %6) #16
  %132 = load i64, ptr %3, align 8
  ret i64 %132
}