; Function Attrs: nounwind sspstrong uwtable
define internal i64 @ast_node_all_tokens(ptr readnone captures(none) %0, i64 noundef %1) #0 {
  %3 = tail call ptr @rb_check_typeddata(i64 noundef %1, ptr noundef nonnull @rb_node_type) #11
  %4 = load i64, ptr %3, align 8, !tbaa !70
  %5 = tail call ptr @rb_ruby_ast_data_get(i64 noundef %4) #11
  %6 = load ptr, ptr %5, align 8, !tbaa !79
  %7 = getelementptr inbounds nuw i8, ptr %6, i64 24
  %8 = load ptr, ptr %7, align 8, !tbaa !80
  %9 = icmp eq ptr %8, null
  br i1 %9, label %63, label %10

10:                                               ; preds = %2
  %11 = getelementptr inbounds nuw i8, ptr %8, i64 16
  %12 = load i64, ptr %11, align 8, !tbaa !85
  %13 = tail call i64 @rb_ary_new_capa(i64 noundef %12) #11
  %14 = load i64, ptr %11, align 8, !tbaa !85
  %15 = icmp sgt i64 %14, 0
  br i1 %15, label %.lr.ph, label %._crit_edge

.lr.ph:                                           ; preds = %10
  %16 = getelementptr inbounds nuw i8, ptr %8, i64 8
  br label %17

17:                                               ; preds = %.lr.ph, %17
  %.02426 = phi i64 [ 0, %.lr.ph ], [ %59, %17 ]
  %18 = load ptr, ptr %16, align 8, !tbaa !87
  %19 = getelementptr ptr, ptr %18, i64 %.02426
  %20 = load ptr, ptr %19, align 8, !tbaa !88
  %21 = getelementptr inbounds nuw i8, ptr %20, i64 16
  %22 = load ptr, ptr %21, align 8, !tbaa !89
  %23 = getelementptr inbounds nuw i8, ptr %22, i64 24
  %24 = load ptr, ptr %23, align 8, !tbaa !93
  %25 = getelementptr inbounds nuw i8, ptr %22, i64 16
  %26 = load i64, ptr %25, align 8, !tbaa !96
  %27 = tail call i64 @rb_str_new(ptr noundef %24, i64 noundef %26) #11
  %28 = getelementptr inbounds nuw i8, ptr %20, i64 24
  %29 = load i32, ptr %28, align 8, !tbaa !97
  %30 = sext i32 %29 to i64
  %31 = shl nsw i64 %30, 1
  %32 = or disjoint i64 %31, 1
  %33 = getelementptr inbounds nuw i8, ptr %20, i64 28
  %34 = load i32, ptr %33, align 4, !tbaa !98
  %35 = sext i32 %34 to i64
  %36 = shl nsw i64 %35, 1
  %37 = or disjoint i64 %36, 1
  %38 = getelementptr inbounds nuw i8, ptr %20, i64 32
  %39 = load i32, ptr %38, align 8, !tbaa !99
  %40 = sext i32 %39 to i64
  %41 = shl nsw i64 %40, 1
  %42 = or disjoint i64 %41, 1
  %43 = getelementptr inbounds nuw i8, ptr %20, i64 36
  %44 = load i32, ptr %43, align 4, !tbaa !100
  %45 = sext i32 %44 to i64
  %46 = shl nsw i64 %45, 1
  %47 = or disjoint i64 %46, 1
  %48 = tail call i64 (i64, ...) @rb_ary_new_from_args(i64 noundef 4, i64 noundef %32, i64 noundef %37, i64 noundef %42, i64 noundef %47) #11
  %49 = load i32, ptr %20, align 8, !tbaa !101
  %50 = sext i32 %49 to i64
  %51 = shl nsw i64 %50, 1
  %52 = or disjoint i64 %51, 1
  %53 = getelementptr inbounds nuw i8, ptr %20, i64 8
  %54 = load ptr, ptr %53, align 8, !tbaa !102
  %55 = tail call i64 @rb_intern(ptr noundef %54) #11
  %56 = tail call i64 @rb_id2sym(i64 noundef %55) #11
  %57 = tail call i64 (i64, ...) @rb_ary_new_from_args(i64 noundef 4, i64 noundef %52, i64 noundef %56, i64 noundef %27, i64 noundef %48) #11
  %58 = tail call i64 @rb_ary_push(i64 noundef %13, i64 noundef %57) #11
  %59 = add nuw nsw i64 %.02426, 1
  %60 = load i64, ptr %11, align 8, !tbaa !85
  %61 = icmp slt i64 %59, %60
  br i1 %61, label %17, label %._crit_edge, !llvm.loop !103

._crit_edge:                                      ; preds = %17, %10
  %62 = tail call i64 @rb_ary_freeze(i64 noundef %13) #11
  br label %63

63:                                               ; preds = %2, %._crit_edge
  %.0 = phi i64 [ %13, %._crit_edge ], [ 4, %2 ]
  ret i64 %.0
}